; Function Attrs: mustprogress nofree norecurse nosync nounwind willreturn memory(read, inaccessiblemem: none) uwtable
define hidden noundef i64 @_ZN12HotSpotJVMCI13InstalledCode7addressEP8JVMCIEnvP7oopDesc(ptr nocapture noundef readnone %0, ptr noundef %1) local_unnamed_addr #6 align 2 {
  %3 = load i32, ptr @_ZN12HotSpotJVMCI13InstalledCode15_address_offsetE, align 4
  %4 = ptrtoint ptr %1 to i64
  %5 = sext i32 %3 to i64
  %6 = add nsw i64 %5, %4
  %7 = inttoptr i64 %6 to ptr
  %8 = load i64, ptr %7, align 8
  ret i64 %8
}